c__builtin__
set
p1
((lp2
S'recv_socket'
p3
aS'create_open_file'
p4
aS'sleep'
p5
aS'open_scmanager'
p6
aS'load_driver'
p7
aS'get_host_by_addr'
p8
aS'create_interface'
p9
aS'create_mutex'
p10
aS'set_value'
p11
aS'enum_items'
p12
aS'get_computer_name'
p13
aS'read_value'
p14
aS'write_value'
p15
aS'change_service_config'
p16
aS'copy_file'
p17
aS'exit_windows'
p18
aS'enum_modules'
p19
aS'bind_socket'
p20
aS'enum_keys'
p21
aS'delete_value'
p22
aS'enum_types'
p23
aS'open_service'
p24
aS'processes'
p25
aS'create_socket'
p26
aS'enum_user'
p27
aS'dump_line'
p28
aS'unload_driver'
p29
aS'enum_values'
p30
aS'thread'
p31
aS'load_dll'
p32
aS'create_window'
p33
aS'read_section_names'
p34
aS'com_create_instance'
p35
aS'message'
p36
aS'get_userinfo'
p37
aS'get_file_attributes'
p38
aS'find_file'
p39
aS'open_file'
p40
aS'get_username'
p41
aS'create_service'
p42
aS'query_value'
p43
aS'create_file'
p44
aS'move_file'
p45
aS'open_key'
p46
aS'send_socket'
p47
aS'vm_write'
p48
aS'delete_file'
p49
aS'create_process_as_user'
p50
aS'get_system_time'
p51
aS'create_mailslot'
p52
aS'com_createole_object'
p53
aS'listen_socket'
p54
aS'enum_share'
p55
aS'open_mutex'
p56
aS'vm_protect'
p57
aS'all_section'
p58
aS'vm_mapviewofsection'
p59
aS'get_windows_directory'
p60
aS'enum_processes'
p61
aS'open_url'
p62
aS'download_file'
p63
aS'com_get_class_object'
p64
aS'kill_process'
p65
aS'load_image'
p66
aS'delete_share'
p67
aS'create_process'
p68
aS'logon_as_user'
p69
aS'get_system_directory'
p70
aS'set_thread_context'
p71
aS'create_process_nt'
p72
aS'destroy_window'
p73
aS'vm_allocate'
p74
aS'enum_handles'
p75
aS'connect_socket'
p76
aS'set_file_time'
p77
aS'start_service'
p78
aS'create_thread_remote'
p79
aS'show_window'
p80
aS'open_process'
p81
aS'impersonate_user'
p82
aS'connect'
p83
aS'enum_services'
p84
aS'process'
p85
aS'vm_read'
p86
aS'check_for_debugger'
p87
aS'delete_service'
p88
aS'read_section'
p89
aS'enum_window'
p90
aS'set_system_time'
p91
aS'add_netjob'
p92
aS'set_windows_hook'
p93
aS'control_service'
p94
aS'accept_socket'
p95
aS'trimmed_bytes'
p96
aS'download_file_to_cache'
p97
aS'find_window'
p98
aS'get_host_by_name'
p99
aS'set_file_attributes'
p100
aS'revert_to_self'
p101
aS'create_key'
p102
aS'create_thread'
p103
aS'enum_subtypes'
p104
aS'delete_key'
p105
aS'create_directory'
p106
aS'remove_directory'
p107
aS'create_namedpipe'
p108
atRp109
.